; Function Attrs: mustprogress uwtable
define internal noundef zeroext i1 @_ZN12_GLOBAL__N_19WriterSpy5writeEPKvm(ptr noundef nonnull align 8 dereferenceable(72) %0, ptr noundef %1, i64 noundef %2) unnamed_addr #0 align 2 personality ptr @__gxx_personality_v0 {
  %4 = alloca %"class.std::__cxx11::basic_string", align 8
  %5 = getelementptr inbounds i8, ptr %0, i64 8
  %6 = load ptr, ptr %5, align 8
  %7 = load ptr, ptr %6, align 8
  %8 = getelementptr inbounds i8, ptr %7, i64 32
  %9 = load ptr, ptr %8, align 8
  %10 = tail call noundef zeroext i1 %9(ptr noundef nonnull align 8 dereferenceable(8) %6, ptr noundef %1, i64 noundef %2)
  br i1 %10, label %11, label %28

11:                                               ; preds = %3
  %12 = getelementptr inbounds i8, ptr %0, i64 40
  call void @_ZNSt7__cxx1112basic_stringIcSt11char_traitsIcESaIcEEC1ERKS4_(ptr noundef nonnull align 8 dereferenceable(32) %4, ptr noundef nonnull align 8 dereferenceable(32) %12)
  %13 = getelementptr inbounds i8, ptr %1, i64 %2
  %14 = call ptr @_ZNSt7__cxx1112basic_stringIcSt11char_traitsIcESaIcEE3endEv(ptr noundef nonnull align 8 dereferenceable(32) %4) #23
  %15 = call ptr @_ZNSt7__cxx1112basic_stringIcSt11char_traitsIcESaIcEE3endEv(ptr noundef nonnull align 8 dereferenceable(32) %4) #23
  %16 = invoke noundef nonnull align 8 dereferenceable(32) ptr @_ZNSt7__cxx1112basic_stringIcSt11char_traitsIcESaIcEE7replaceEN9__gnu_cxx17__normal_iteratorIPKcS4_EES9_S8_S8_(ptr noundef nonnull align 8 dereferenceable(32) %4, ptr %14, ptr %15, ptr noundef %1, ptr noundef %13)
          to label %_ZNSt7__cxx1112basic_stringIcSt11char_traitsIcESaIcEE6appendIPKcvEERS4_T_S9_.exit unwind label %26

_ZNSt7__cxx1112basic_stringIcSt11char_traitsIcESaIcEE6appendIPKcvEERS4_T_S9_.exit: ; preds = %11
  %17 = getelementptr inbounds i8, ptr %0, i64 24
  %18 = load ptr, ptr %17, align 8
  %19 = call noundef ptr @_ZNSt7__cxx1112basic_stringIcSt11char_traitsIcESaIcEE4dataEv(ptr noundef nonnull align 8 dereferenceable(32) %4) #23
  %20 = call noundef i64 @_ZNKSt7__cxx1112basic_stringIcSt11char_traitsIcESaIcEE4sizeEv(ptr noundef nonnull align 8 dereferenceable(32) %4) #23
  %21 = load ptr, ptr %18, align 8
  %22 = getelementptr inbounds i8, ptr %21, i64 32
  %23 = load ptr, ptr %22, align 8
  %24 = invoke noundef zeroext i1 %23(ptr noundef nonnull align 8 dereferenceable(8) %18, ptr noundef %19, i64 noundef %20)
          to label %25 unwind label %26

25:                                               ; preds = %_ZNSt7__cxx1112basic_stringIcSt11char_traitsIcESaIcEE6appendIPKcvEERS4_T_S9_.exit
  call void @_ZNSt7__cxx1112basic_stringIcSt11char_traitsIcESaIcEED1Ev(ptr noundef nonnull align 8 dereferenceable(32) %4) #23
  br label %28

26:                                               ; preds = %11, %_ZNSt7__cxx1112basic_stringIcSt11char_traitsIcESaIcEE6appendIPKcvEERS4_T_S9_.exit
  %27 = landingpad { ptr, i32 }
          cleanup
  call void @_ZNSt7__cxx1112basic_stringIcSt11char_traitsIcESaIcEED1Ev(ptr noundef nonnull align 8 dereferenceable(32) %4) #23
  resume { ptr, i32 } %27

28:                                               ; preds = %3, %25
  ret i1 %10
}